; Function Attrs: mustprogress uwtable
define void @_ZN8facebook4yoga5Event5resetEv() local_unnamed_addr #1 align 2 personality ptr @__gxx_personality_v0 {
  br label %.split3.us.i

.split3.us.i:                                     ; preds = %.split3.us.i, %0
  %1 = load atomic i64, ptr @_ZN8facebook4yoga12_GLOBAL__N_111subscribersE monotonic, align 8
  %2 = cmpxchg weak ptr @_ZN8facebook4yoga12_GLOBAL__N_111subscribersE, i64 %1, i64 0 release monotonic, align 8
  %3 = extractvalue { i64, i1 } %2, 1
  br i1 %3, label %_ZN8facebook4yoga12_GLOBAL__N_14pushEPNS1_4NodeE.exit, label %.split3.us.i

_ZN8facebook4yoga12_GLOBAL__N_14pushEPNS1_4NodeE.exit: ; preds = %.split3.us.i
  %.not4 = icmp eq i64 %1, 0
  br i1 %.not4, label %._crit_edge, label %.lr.ph.preheader

.lr.ph.preheader:                                 ; preds = %_ZN8facebook4yoga12_GLOBAL__N_14pushEPNS1_4NodeE.exit
  %4 = inttoptr i64 %1 to ptr
  br label %.lr.ph

.lr.ph:                                           ; preds = %.lr.ph.preheader, %_ZN8facebook4yoga12_GLOBAL__N_14NodeD2Ev.exit
  %.05 = phi ptr [ %6, %_ZN8facebook4yoga12_GLOBAL__N_14NodeD2Ev.exit ], [ %4, %.lr.ph.preheader ]
  %5 = getelementptr inbounds nuw i8, ptr %.05, i64 32
  %6 = load ptr, ptr %5, align 8, !tbaa !4
  %7 = getelementptr inbounds nuw i8, ptr %.05, i64 16
  %8 = load ptr, ptr %7, align 8, !tbaa !12
  %.not.i.i = icmp eq ptr %8, null
  br i1 %.not.i.i, label %_ZN8facebook4yoga12_GLOBAL__N_14NodeD2Ev.exit, label %9

9:                                                ; preds = %.lr.ph
  %10 = invoke noundef zeroext i1 %8(ptr noundef nonnull align 8 dereferenceable(40) %.05, ptr noundef nonnull align 8 dereferenceable(40) %.05, i32 noundef 3)
          to label %_ZN8facebook4yoga12_GLOBAL__N_14NodeD2Ev.exit unwind label %11

11:                                               ; preds = %9
  %12 = landingpad { ptr, i32 }
          catch ptr null
  %13 = extractvalue { ptr, i32 } %12, 0
  tail call void @__clang_call_terminate(ptr %13) #10
  unreachable

_ZN8facebook4yoga12_GLOBAL__N_14NodeD2Ev.exit:    ; preds = %.lr.ph, %9
  tail call void @_ZdlPvm(ptr noundef nonnull %.05, i64 noundef 40) #11
  %.not = icmp eq ptr %6, null
  br i1 %.not, label %._crit_edge, label %.lr.ph, !llvm.loop !13

._crit_edge:                                      ; preds = %_ZN8facebook4yoga12_GLOBAL__N_14NodeD2Ev.exit, %_ZN8facebook4yoga12_GLOBAL__N_14pushEPNS1_4NodeE.exit
  ret void
}